; Function Attrs: nofree norecurse nosync nounwind sspstrong memory(read, argmem: readwrite, inaccessiblemem: none) uwtable
define dso_local range(i64 -1152921504606846976, 1152921504606846976) i64 @rb_parser_st_keys(ptr noundef readonly captures(none) %0, ptr noundef %1, i64 noundef %2) local_unnamed_addr #12 {
  %4 = getelementptr inbounds nuw i8, ptr %0, i64 48
  %5 = load ptr, ptr %4, align 8, !tbaa !25
  %6 = getelementptr inbounds nuw i8, ptr %0, i64 40
  %7 = load i64, ptr %6, align 8, !tbaa !30
  %8 = getelementptr i64, ptr %1, i64 %2
  %9 = getelementptr inbounds nuw i8, ptr %0, i64 32
  %10 = load i64, ptr %9, align 8, !tbaa !31
  %11 = icmp uge i64 %10, %7
  %.idx.mask.i = and i64 %2, 2305843009213693951
  %12 = icmp eq i64 %.idx.mask.i, 0
  %or.cond19.i = or i1 %12, %11
  br i1 %or.cond19.i, label %st_general_keys.exit, label %.lr.ph.i

.lr.ph.i:                                         ; preds = %3, %20
  %.021.i = phi ptr [ %.1.i, %20 ], [ %1, %3 ]
  %.01820.i = phi i64 [ %21, %20 ], [ %10, %3 ]
  %13 = getelementptr %struct.parser_st_table_entry, ptr %5, i64 %.01820.i
  %14 = load i64, ptr %13, align 8, !tbaa !32
  %15 = icmp eq i64 %14, -1
  br i1 %15, label %20, label %16

16:                                               ; preds = %.lr.ph.i
  %17 = getelementptr inbounds nuw i8, ptr %13, i64 8
  %18 = load i64, ptr %17, align 8, !tbaa !34
  %19 = getelementptr i8, ptr %.021.i, i64 8
  store i64 %18, ptr %.021.i, align 8, !tbaa !46
  br label %20

20:                                               ; preds = %16, %.lr.ph.i
  %.1.i = phi ptr [ %.021.i, %.lr.ph.i ], [ %19, %16 ]
  %21 = add nuw i64 %.01820.i, 1
  %22 = icmp uge i64 %21, %7
  %23 = icmp eq ptr %.1.i, %8
  %or.cond.i = select i1 %22, i1 true, i1 %23
  br i1 %or.cond.i, label %st_general_keys.exit, label %.lr.ph.i, !llvm.loop !66

st_general_keys.exit:                             ; preds = %20, %3
  %.0.lcssa.i = phi ptr [ %1, %3 ], [ %.1.i, %20 ]
  %24 = ptrtoint ptr %.0.lcssa.i to i64
  %25 = ptrtoint ptr %1 to i64
  %26 = sub i64 %24, %25
  %27 = ashr exact i64 %26, 3
  ret i64 %27
}